target datalayout = "e-m:e-p270:32:32-p271:32:32-p272:64:64-i64:64-i128:128-f80:128-n8:16:32:64-S128"
target triple = "x86_64-pc-linux-gnu"

%struct.enumARG = type { ptr, i32, i8, i8 }

@dummy = internal global [1 x ptr] zeroinitializer, align 8

; Function Attrs: nounwind uwtable
define internal i32 @Compare(ptr noundef %0, ptr noundef %1, i1 noundef zeroext %2) #0 {
  %4 = alloca i32, align 4
  %5 = alloca ptr, align 8
  %6 = alloca ptr, align 8
  %7 = alloca i8, align 1
  %8 = alloca i32, align 4
  %9 = alloca i32, align 4
  %10 = alloca i32, align 4
  %11 = alloca i32, align 4
  store ptr %0, ptr %5, align 8, !tbaa !19
  store ptr %1, ptr %6, align 8, !tbaa !19
  %12 = zext i1 %2 to i8
  store i8 %12, ptr %7, align 1, !tbaa !25
  br label %13

13:                                               ; preds = %25, %3
  %14 = load ptr, ptr %6, align 8, !tbaa !19
  %15 = load i8, ptr %14, align 1, !tbaa !34
  %16 = zext i8 %15 to i32
  %17 = icmp ne i32 %16, 0
  br i1 %17, label %18, label %23

18:                                               ; preds = %13
  %19 = load ptr, ptr %6, align 8, !tbaa !19
  %20 = load i8, ptr %19, align 1, !tbaa !34
  %21 = zext i8 %20 to i32
  %22 = icmp eq i32 %21, 32
  br label %23

23:                                               ; preds = %18, %13
  %24 = phi i1 [ false, %13 ], [ %22, %18 ]
  br i1 %24, label %25, label %28

25:                                               ; preds = %23
  %26 = load ptr, ptr %6, align 8, !tbaa !19
  %27 = getelementptr inbounds nuw i8, ptr %26, i32 1
  store ptr %27, ptr %6, align 8, !tbaa !19
  br label %13, !llvm.loop !35

28:                                               ; preds = %23
  br label %29

29:                                               ; preds = %41, %28
  %30 = load ptr, ptr %5, align 8, !tbaa !19
  %31 = load i8, ptr %30, align 1, !tbaa !34
  %32 = zext i8 %31 to i32
  %33 = icmp ne i32 %32, 0
  br i1 %33, label %34, label %39

34:                                               ; preds = %29
  %35 = load ptr, ptr %5, align 8, !tbaa !19
  %36 = load i8, ptr %35, align 1, !tbaa !34
  %37 = zext i8 %36 to i32
  %38 = icmp eq i32 %37, 32
  br label %39

39:                                               ; preds = %34, %29
  %40 = phi i1 [ false, %29 ], [ %38, %34 ]
  br i1 %40, label %41, label %44

41:                                               ; preds = %39
  %42 = load ptr, ptr %5, align 8, !tbaa !19
  %43 = getelementptr inbounds nuw i8, ptr %42, i32 1
  store ptr %43, ptr %5, align 8, !tbaa !19
  br label %29, !llvm.loop !36

44:                                               ; preds = %39
  %45 = load ptr, ptr %6, align 8, !tbaa !19
  %46 = load i8, ptr %45, align 1, !tbaa !34
  %47 = zext i8 %46 to i32
  %48 = icmp eq i32 %47, 0
  br i1 %48, label %49, label %55

49:                                               ; preds = %44
  %50 = load ptr, ptr %5, align 8, !tbaa !19
  %51 = load i8, ptr %50, align 1, !tbaa !34
  %52 = zext i8 %51 to i32
  %53 = icmp eq i32 %52, 0
  %54 = select i1 %53, i32 2, i32 0
  store i32 %54, ptr %4, align 4
  br label %139

55:                                               ; preds = %44
  %56 = load i8, ptr %7, align 1, !tbaa !25, !range !28, !noundef !29
  %57 = trunc i8 %56 to i1
  br i1 %57, label %58, label %77

58:                                               ; preds = %55
  br label %59

59:                                               ; preds = %75, %58
  %60 = load ptr, ptr %5, align 8, !tbaa !19
  %61 = getelementptr inbounds nuw i8, ptr %60, i32 1
  store ptr %61, ptr %5, align 8, !tbaa !19
  %62 = load i8, ptr %60, align 1, !tbaa !34
  %63 = zext i8 %62 to i32
  %64 = load ptr, ptr %6, align 8, !tbaa !19
  %65 = load i8, ptr %64, align 1, !tbaa !34
  %66 = zext i8 %65 to i32
  %67 = icmp eq i32 %63, %66
  br i1 %67, label %68, label %76

68:                                               ; preds = %59
  %69 = load ptr, ptr %6, align 8, !tbaa !19
  %70 = getelementptr inbounds nuw i8, ptr %69, i32 1
  store ptr %70, ptr %6, align 8, !tbaa !19
  %71 = load i8, ptr %69, align 1, !tbaa !34
  %72 = zext i8 %71 to i32
  %73 = icmp eq i32 %72, 0
  br i1 %73, label %74, label %75

74:                                               ; preds = %68
  store i32 2, ptr %4, align 4
  br label %139

75:                                               ; preds = %68
  br label %59, !llvm.loop !37

76:                                               ; preds = %59
  br label %110

77:                                               ; preds = %55
  br label %78

78:                                               ; preds = %108, %77
  call void @llvm.lifetime.start.p0(i64 4, ptr %8) #7
  %79 = call ptr @__ctype_toupper_loc() #9
  %80 = load ptr, ptr %79, align 8, !tbaa !38
  %81 = load ptr, ptr %5, align 8, !tbaa !19
  %82 = getelementptr inbounds nuw i8, ptr %81, i32 1
  store ptr %82, ptr %5, align 8, !tbaa !19
  %83 = load i8, ptr %81, align 1, !tbaa !34
  %84 = zext i8 %83 to i32
  %85 = sext i32 %84 to i64
  %86 = getelementptr inbounds i32, ptr %80, i64 %85
  %87 = load i32, ptr %86, align 4, !tbaa !10
  store i32 %87, ptr %8, align 4, !tbaa !10
  %88 = load i32, ptr %8, align 4, !tbaa !10
  store i32 %88, ptr %9, align 4, !tbaa !10
  call void @llvm.lifetime.end.p0(i64 4, ptr %8) #7
  %89 = load i32, ptr %9, align 4, !tbaa !10
  call void @llvm.lifetime.start.p0(i64 4, ptr %10) #7
  %90 = call ptr @__ctype_toupper_loc() #9
  %91 = load ptr, ptr %90, align 8, !tbaa !38
  %92 = load ptr, ptr %6, align 8, !tbaa !19
  %93 = load i8, ptr %92, align 1, !tbaa !34
  %94 = zext i8 %93 to i32
  %95 = sext i32 %94 to i64
  %96 = getelementptr inbounds i32, ptr %91, i64 %95
  %97 = load i32, ptr %96, align 4, !tbaa !10
  store i32 %97, ptr %10, align 4, !tbaa !10
  %98 = load i32, ptr %10, align 4, !tbaa !10
  store i32 %98, ptr %11, align 4, !tbaa !10
  call void @llvm.lifetime.end.p0(i64 4, ptr %10) #7
  %99 = load i32, ptr %11, align 4, !tbaa !10
  %100 = icmp eq i32 %89, %99
  br i1 %100, label %101, label %109

101:                                              ; preds = %78
  %102 = load ptr, ptr %6, align 8, !tbaa !19
  %103 = getelementptr inbounds nuw i8, ptr %102, i32 1
  store ptr %103, ptr %6, align 8, !tbaa !19
  %104 = load i8, ptr %102, align 1, !tbaa !34
  %105 = zext i8 %104 to i32
  %106 = icmp eq i32 %105, 0
  br i1 %106, label %107, label %108

107:                                              ; preds = %101
  store i32 2, ptr %4, align 4
  br label %139

108:                                              ; preds = %101
  br label %78, !llvm.loop !40

109:                                              ; preds = %78
  br label %110

110:                                              ; preds = %109, %76
  br label %111

111:                                              ; preds = %110
  br label %112

112:                                              ; preds = %124, %111
  %113 = load ptr, ptr %6, align 8, !tbaa !19
  %114 = load i8, ptr %113, align 1, !tbaa !34
  %115 = zext i8 %114 to i32
  %116 = icmp ne i32 %115, 0
  br i1 %116, label %117, label %122

117:                                              ; preds = %112
  %118 = load ptr, ptr %6, align 8, !tbaa !19
  %119 = load i8, ptr %118, align 1, !tbaa !34
  %120 = zext i8 %119 to i32
  %121 = icmp eq i32 %120, 32
  br label %122

122:                                              ; preds = %117, %112
  %123 = phi i1 [ false, %112 ], [ %121, %117 ]
  br i1 %123, label %124, label %127

124:                                              ; preds = %122
  %125 = load ptr, ptr %6, align 8, !tbaa !19
  %126 = getelementptr inbounds nuw i8, ptr %125, i32 1
  store ptr %126, ptr %6, align 8, !tbaa !19
  br label %112, !llvm.loop !41

127:                                              ; preds = %122
  %128 = load ptr, ptr %6, align 8, !tbaa !19
  %129 = load i8, ptr %128, align 1, !tbaa !34
  %130 = icmp ne i8 %129, 0
  br i1 %130, label %131, label %132

131:                                              ; preds = %127
  store i32 0, ptr %4, align 4
  br label %139

132:                                              ; preds = %127
  %133 = load ptr, ptr %5, align 8, !tbaa !19
  %134 = getelementptr inbounds i8, ptr %133, i64 -1
  %135 = load i8, ptr %134, align 1, !tbaa !34
  %136 = zext i8 %135 to i32
  %137 = icmp eq i32 %136, 0
  %138 = select i1 %137, i32 2, i32 1
  store i32 %138, ptr %4, align 4
  br label %139

139:                                              ; preds = %132, %131, %107, %74, %49
  %140 = load i32, ptr %4, align 4
  ret i32 %140
}

; Function Attrs: nounwind uwtable
define internal zeroext i1 @Previous_Enum(ptr noundef %0, ptr noundef %1) #0 {
  %3 = alloca i1, align 1
  %4 = alloca ptr, align 8
  %5 = alloca ptr, align 8
  %6 = alloca ptr, align 8
  %7 = alloca i32, align 4
  %8 = alloca ptr, align 8
  %9 = alloca i8, align 1
  %10 = alloca ptr, align 8
  %11 = alloca i32, align 4
  store ptr %0, ptr %4, align 8, !tbaa !26
  store ptr %1, ptr %5, align 8, !tbaa !9
  call void @llvm.lifetime.start.p0(i64 8, ptr %6) #7
  %12 = load ptr, ptr %5, align 8, !tbaa !9
  store ptr %12, ptr %6, align 8, !tbaa !9
  call void @llvm.lifetime.start.p0(i64 4, ptr %7) #7
  %13 = load ptr, ptr %6, align 8, !tbaa !9
  %14 = getelementptr inbounds nuw %struct.enumARG, ptr %13, i32 0, i32 1
  %15 = load i32, ptr %14, align 8, !tbaa !23
  store i32 %15, ptr %7, align 4, !tbaa !10
  call void @llvm.lifetime.start.p0(i64 8, ptr %8) #7
  %16 = load ptr, ptr %6, align 8, !tbaa !9
  %17 = getelementptr inbounds nuw %struct.enumARG, ptr %16, i32 0, i32 0
  %18 = load ptr, ptr %17, align 8, !tbaa !14
  %19 = load i32, ptr %7, align 4, !tbaa !10
  %20 = sub nsw i32 %19, 1
  %21 = sext i32 %20 to i64
  %22 = getelementptr inbounds ptr, ptr %18, i64 %21
  store ptr %22, ptr %8, align 8, !tbaa !12
  call void @llvm.lifetime.start.p0(i64 1, ptr %9) #7
  %23 = load ptr, ptr %6, align 8, !tbaa !9
  %24 = getelementptr inbounds nuw %struct.enumARG, ptr %23, i32 0, i32 2
  %25 = load i8, ptr %24, align 4, !tbaa !17, !range !28, !noundef !29
  %26 = trunc i8 %25 to i1
  %27 = zext i1 %26 to i8
  store i8 %27, ptr %9, align 1, !tbaa !25
  call void @llvm.lifetime.start.p0(i64 8, ptr %10) #7
  %28 = load ptr, ptr %4, align 8, !tbaa !26
  %29 = call ptr @field_buffer(ptr noundef %28, i32 noundef 0)
  store ptr %29, ptr %10, align 8, !tbaa !19
  %30 = load ptr, ptr %8, align 8, !tbaa !12
  %31 = icmp ne ptr %30, null
  br i1 %31, label %32, label %76

32:                                               ; preds = %2
  br label %33

33:                                               ; preds = %47, %32
  %34 = load i32, ptr %7, align 4, !tbaa !10
  %35 = add nsw i32 %34, -1
  store i32 %35, ptr %7, align 4, !tbaa !10
  %36 = icmp ne i32 %34, 0
  br i1 %36, label %37, label %48

37:                                               ; preds = %33
  %38 = load ptr, ptr %8, align 8, !tbaa !12
  %39 = getelementptr inbounds ptr, ptr %38, i32 -1
  store ptr %39, ptr %8, align 8, !tbaa !12
  %40 = load ptr, ptr %38, align 8, !tbaa !19
  %41 = load ptr, ptr %10, align 8, !tbaa !19
  %42 = load i8, ptr %9, align 1, !tbaa !25, !range !28, !noundef !29
  %43 = trunc i8 %42 to i1
  %44 = call i32 @Compare(ptr noundef %40, ptr noundef %41, i1 noundef zeroext %43)
  %45 = icmp eq i32 %44, 2
  br i1 %45, label %46, label %47

46:                                               ; preds = %37
  br label %48

47:                                               ; preds = %37
  br label %33, !llvm.loop !33

48:                                               ; preds = %46, %33
  %49 = load i32, ptr %7, align 4, !tbaa !10
  %50 = icmp sle i32 %49, 0
  br i1 %50, label %51, label %61

51:                                               ; preds = %48
  %52 = load ptr, ptr %6, align 8, !tbaa !9
  %53 = getelementptr inbounds nuw %struct.enumARG, ptr %52, i32 0, i32 0
  %54 = load ptr, ptr %53, align 8, !tbaa !14
  %55 = load ptr, ptr %6, align 8, !tbaa !9
  %56 = getelementptr inbounds nuw %struct.enumARG, ptr %55, i32 0, i32 1
  %57 = load i32, ptr %56, align 8, !tbaa !23
  %58 = sub nsw i32 %57, 1
  %59 = sext i32 %58 to i64
  %60 = getelementptr inbounds ptr, ptr %54, i64 %59
  store ptr %60, ptr %8, align 8, !tbaa !12
  br label %61

61:                                               ; preds = %51, %48
  %62 = load i32, ptr %7, align 4, !tbaa !10
  %63 = icmp sge i32 %62, 0
  br i1 %63, label %70, label %64

64:                                               ; preds = %61
  %65 = load ptr, ptr %10, align 8, !tbaa !19
  %66 = load i8, ptr %9, align 1, !tbaa !25, !range !28, !noundef !29
  %67 = trunc i8 %66 to i1
  %68 = call i32 @Compare(ptr noundef @dummy, ptr noundef %65, i1 noundef zeroext %67)
  %69 = icmp eq i32 %68, 2
  br i1 %69, label %70, label %75

70:                                               ; preds = %64, %61
  %71 = load ptr, ptr %4, align 8, !tbaa !26
  %72 = load ptr, ptr %8, align 8, !tbaa !12
  %73 = load ptr, ptr %72, align 8, !tbaa !19
  %74 = call i32 @set_field_buffer(ptr noundef %71, i32 noundef 0, ptr noundef %73)
  store i1 true, ptr %3, align 1
  store i32 1, ptr %11, align 4
  br label %77

75:                                               ; preds = %64
  br label %76

76:                                               ; preds = %75, %2
  store i1 false, ptr %3, align 1
  store i32 1, ptr %11, align 4
  br label %77

77:                                               ; preds = %76, %70
  call void @llvm.lifetime.end.p0(i64 8, ptr %10) #7
  call void @llvm.lifetime.end.p0(i64 1, ptr %9) #7
  call void @llvm.lifetime.end.p0(i64 8, ptr %8) #7
  call void @llvm.lifetime.end.p0(i64 4, ptr %7) #7
  call void @llvm.lifetime.end.p0(i64 8, ptr %6) #7
  %78 = load i1, ptr %3, align 1
  ret i1 %78
}