; Function Attrs: nounwind uwtable
define internal noundef zeroext i1 @Previous_Enum(ptr noundef %0, ptr noundef readonly captures(none) %1) #3 {
  %3 = getelementptr inbounds nuw i8, ptr %1, i64 8
  %4 = load i32, ptr %3, align 8, !tbaa !18
  %5 = load ptr, ptr %1, align 8, !tbaa !9
  %6 = sext i32 %4 to i64
  %7 = getelementptr ptr, ptr %5, i64 %6
  %8 = getelementptr i8, ptr %7, i64 -8
  %9 = getelementptr inbounds nuw i8, ptr %1, i64 12
  %10 = load i8, ptr %9, align 4, !tbaa !14, !range !21, !noundef !22
  %11 = trunc nuw i8 %10 to i1
  %12 = tail call ptr @field_buffer(ptr noundef %0, i32 noundef 0) #10
  %.not = icmp eq ptr %8, null
  br i1 %.not, label %Compare.exit41, label %.preheader

.preheader:                                       ; preds = %2
  %.not2287 = icmp eq i32 %4, 0
  br i1 %.not2287, label %.thread48, label %.lr.ph

.thread48:                                        ; preds = %Compare.exit, %.preheader
  %13 = load ptr, ptr %1, align 8, !tbaa !9
  %14 = load i32, ptr %3, align 8, !tbaa !18
  %15 = sext i32 %14 to i64
  %16 = getelementptr ptr, ptr %13, i64 %15
  %17 = getelementptr i8, ptr %16, i64 -8
  br label %69

.lr.ph:                                           ; preds = %.preheader, %Compare.exit
  %.01989 = phi i32 [ %18, %Compare.exit ], [ %4, %.preheader ]
  %.02088 = phi ptr [ %25, %Compare.exit ], [ %8, %.preheader ]
  %18 = add nsw i32 %.01989, -1
  %19 = load ptr, ptr %.02088, align 8, !tbaa !16
  br label %20

20:                                               ; preds = %20, %.lr.ph
  %.029.i = phi ptr [ %12, %.lr.ph ], [ %22, %20 ]
  %21 = load i8, ptr %.029.i, align 1, !tbaa !23
  %cond.i = icmp eq i8 %21, 32
  %22 = getelementptr inbounds nuw i8, ptr %.029.i, i64 1
  br i1 %cond.i, label %20, label %.critedge.i, !llvm.loop !24

.critedge.i:                                      ; preds = %20, %.critedge.i
  %.028.i = phi ptr [ %24, %.critedge.i ], [ %19, %20 ]
  %23 = load i8, ptr %.028.i, align 1, !tbaa !23
  %cond40.i = icmp eq i8 %23, 32
  %24 = getelementptr inbounds nuw i8, ptr %.028.i, i64 1
  br i1 %cond40.i, label %.critedge.i, label %.critedge2.i, !llvm.loop !26

.critedge2.i:                                     ; preds = %.critedge.i
  %25 = getelementptr inbounds i8, ptr %.02088, i64 -8
  %26 = icmp eq i8 %21, 0
  br i1 %26, label %27, label %29

27:                                               ; preds = %.critedge2.i
  %28 = icmp eq i8 %23, 0
  br i1 %28, label %select.unfold, label %Compare.exit

29:                                               ; preds = %.critedge2.i
  br i1 %11, label %.preheader.i, label %.preheader44.i

.preheader44.i:                                   ; preds = %29
  %30 = tail call ptr @__ctype_toupper_loc() #11
  %31 = load ptr, ptr %30, align 8, !tbaa !30
  br label %39

.preheader.i:                                     ; preds = %29, %35
  %.130.i = phi ptr [ %37, %35 ], [ %.029.i, %29 ]
  %.1.i = phi ptr [ %36, %35 ], [ %.028.i, %29 ]
  %32 = load i8, ptr %.1.i, align 1, !tbaa !23
  %33 = load i8, ptr %.130.i, align 1, !tbaa !23
  %34 = icmp eq i8 %32, %33
  br i1 %34, label %35, label %.loopexit42.i

35:                                               ; preds = %.preheader.i
  %36 = getelementptr inbounds nuw i8, ptr %.1.i, i64 1
  %37 = getelementptr inbounds nuw i8, ptr %.130.i, i64 1
  %38 = icmp eq i8 %32, 0
  br i1 %38, label %select.unfold, label %.preheader.i, !llvm.loop !28

39:                                               ; preds = %49, %.preheader44.i
  %.231.i = phi ptr [ %51, %49 ], [ %.029.i, %.preheader44.i ]
  %.2.i = phi ptr [ %50, %49 ], [ %.028.i, %.preheader44.i ]
  %40 = load i8, ptr %.2.i, align 1, !tbaa !23
  %41 = zext i8 %40 to i64
  %42 = getelementptr inbounds nuw i32, ptr %31, i64 %41
  %43 = load i32, ptr %42, align 4, !tbaa !13
  %44 = load i8, ptr %.231.i, align 1, !tbaa !23
  %45 = zext i8 %44 to i64
  %46 = getelementptr inbounds nuw i32, ptr %31, i64 %45
  %47 = load i32, ptr %46, align 4, !tbaa !13
  %48 = icmp eq i32 %43, %47
  br i1 %48, label %49, label %.loopexit42.i

49:                                               ; preds = %39
  %50 = getelementptr inbounds nuw i8, ptr %.2.i, i64 1
  %51 = getelementptr inbounds nuw i8, ptr %.231.i, i64 1
  %52 = icmp eq i8 %44, 0
  br i1 %52, label %select.unfold, label %39, !llvm.loop !32

.loopexit42.i:                                    ; preds = %39, %.preheader.i
  %53 = phi i8 [ %32, %.preheader.i ], [ %40, %39 ]
  %54 = phi i8 [ %33, %.preheader.i ], [ %44, %39 ]
  %.332.i = phi ptr [ %.130.i, %.preheader.i ], [ %.231.i, %39 ]
  br label %55

55:                                               ; preds = %57, %.loopexit42.i
  %56 = phi i8 [ %54, %.loopexit42.i ], [ %.pre.i, %57 ]
  %.4.i = phi ptr [ %.332.i, %.loopexit42.i ], [ %58, %57 ]
  switch i8 %56, label %Compare.exit [
    i8 32, label %57
    i8 0, label %59
  ]

57:                                               ; preds = %55
  %58 = getelementptr inbounds nuw i8, ptr %.4.i, i64 1
  %.pre.i = load i8, ptr %58, align 1, !tbaa !23
  br label %55, !llvm.loop !27

59:                                               ; preds = %55
  %60 = icmp eq i8 %53, 0
  br i1 %60, label %select.unfold, label %Compare.exit

Compare.exit:                                     ; preds = %55, %59, %27
  %.not22 = icmp eq i32 %18, 0
  br i1 %.not22, label %.thread48, label %.lr.ph, !llvm.loop !34

select.unfold:                                    ; preds = %59, %27, %49, %35
  %61 = icmp slt i32 %.01989, 2
  br i1 %61, label %62, label %.thread45

62:                                               ; preds = %select.unfold
  %63 = load ptr, ptr %1, align 8, !tbaa !9
  %64 = load i32, ptr %3, align 8, !tbaa !18
  %65 = sext i32 %64 to i64
  %66 = getelementptr ptr, ptr %63, i64 %65
  %67 = getelementptr i8, ptr %66, i64 -8
  %68 = icmp eq i32 %.01989, 1
  br i1 %68, label %.thread45, label %69

69:                                               ; preds = %.thread48, %62
  %70 = phi ptr [ %17, %.thread48 ], [ %67, %62 ]
  br label %71

71:                                               ; preds = %71, %69
  %.029.i23 = phi ptr [ %12, %69 ], [ %73, %71 ]
  %72 = load i8, ptr %.029.i23, align 1, !tbaa !23
  %73 = getelementptr inbounds nuw i8, ptr %.029.i23, i64 1
  switch i8 %72, label %74 [
    i8 32, label %71
    i8 0, label %.thread45
  ]

74:                                               ; preds = %71
  br i1 %11, label %.preheader.i38, label %.preheader44.i30

.preheader44.i30:                                 ; preds = %74
  %75 = tail call ptr @__ctype_toupper_loc() #11
  %76 = load ptr, ptr %75, align 8, !tbaa !30
  br label %84

.preheader.i38:                                   ; preds = %74, %80
  %.130.i39 = phi ptr [ %82, %80 ], [ %.029.i23, %74 ]
  %.1.i40 = phi ptr [ %81, %80 ], [ @dummy, %74 ]
  %77 = load i8, ptr %.1.i40, align 1, !tbaa !23
  %78 = load i8, ptr %.130.i39, align 1, !tbaa !23
  %79 = icmp eq i8 %77, %78
  br i1 %79, label %80, label %.loopexit42.i33

80:                                               ; preds = %.preheader.i38
  %81 = getelementptr inbounds nuw i8, ptr %.1.i40, i64 1
  %82 = getelementptr inbounds nuw i8, ptr %.130.i39, i64 1
  %83 = icmp eq i8 %77, 0
  br i1 %83, label %.thread45, label %.preheader.i38, !llvm.loop !28

84:                                               ; preds = %94, %.preheader44.i30
  %.231.i31 = phi ptr [ %96, %94 ], [ %.029.i23, %.preheader44.i30 ]
  %.2.i32 = phi ptr [ %95, %94 ], [ @dummy, %.preheader44.i30 ]
  %85 = load i8, ptr %.2.i32, align 1, !tbaa !23
  %86 = zext i8 %85 to i64
  %87 = getelementptr inbounds nuw i32, ptr %76, i64 %86
  %88 = load i32, ptr %87, align 4, !tbaa !13
  %89 = load i8, ptr %.231.i31, align 1, !tbaa !23
  %90 = zext i8 %89 to i64
  %91 = getelementptr inbounds nuw i32, ptr %76, i64 %90
  %92 = load i32, ptr %91, align 4, !tbaa !13
  %93 = icmp eq i32 %88, %92
  br i1 %93, label %94, label %.loopexit42.i33

94:                                               ; preds = %84
  %95 = getelementptr inbounds nuw i8, ptr %.2.i32, i64 1
  %96 = getelementptr inbounds nuw i8, ptr %.231.i31, i64 1
  %97 = icmp eq i8 %89, 0
  br i1 %97, label %.thread45, label %84, !llvm.loop !32

.loopexit42.i33:                                  ; preds = %84, %.preheader.i38
  %98 = phi i8 [ %77, %.preheader.i38 ], [ %85, %84 ]
  %99 = phi i8 [ %78, %.preheader.i38 ], [ %89, %84 ]
  %.332.i34 = phi ptr [ %.130.i39, %.preheader.i38 ], [ %.231.i31, %84 ]
  br label %100

100:                                              ; preds = %102, %.loopexit42.i33
  %101 = phi i8 [ %99, %.loopexit42.i33 ], [ %.pre.i37, %102 ]
  %.4.i35 = phi ptr [ %.332.i34, %.loopexit42.i33 ], [ %103, %102 ]
  switch i8 %101, label %Compare.exit41 [
    i8 32, label %102
    i8 0, label %104
  ]

102:                                              ; preds = %100
  %103 = getelementptr inbounds nuw i8, ptr %.4.i35, i64 1
  %.pre.i37 = load i8, ptr %103, align 1, !tbaa !23
  br label %100, !llvm.loop !27

104:                                              ; preds = %100
  %105 = icmp eq i8 %98, 0
  br i1 %105, label %.thread45, label %Compare.exit41

.thread45:                                        ; preds = %71, %94, %80, %104, %select.unfold, %62
  %.247 = phi ptr [ %67, %62 ], [ %25, %select.unfold ], [ %70, %104 ], [ %70, %80 ], [ %70, %94 ], [ %70, %71 ]
  %106 = load ptr, ptr %.247, align 8, !tbaa !16
  %107 = tail call i32 @set_field_buffer(ptr noundef %0, i32 noundef 0, ptr noundef %106) #10
  br label %Compare.exit41

Compare.exit41:                                   ; preds = %100, %104, %2, %.thread45
  %.0 = phi i1 [ true, %.thread45 ], [ false, %2 ], [ false, %104 ], [ false, %100 ]
  ret i1 %.0
}